target datalayout = "e-m:e-p270:32:32-p271:32:32-p272:64:64-i64:64-i128:128-f80:128-n8:16:32:64-S128"
target triple = "x86_64-pc-linux-gnu"

%struct._object = type { i64, ptr }
%struct._typeobject = type { %struct.PyVarObject, ptr, i64, i64, ptr, i64, ptr, ptr, ptr, ptr, ptr, ptr, ptr, ptr, ptr, ptr, ptr, ptr, ptr, i64, ptr, ptr, ptr, ptr, i64, ptr, ptr, ptr, ptr, ptr, ptr, ptr, ptr, ptr, i64, ptr, ptr, ptr, ptr, ptr, ptr, ptr, ptr, ptr, ptr, ptr, i32, ptr, ptr }
%struct.PyVarObject = type { %struct._object, i64 }
%"class.std::__cxx11::basic_string" = type { %"struct.std::__cxx11::basic_string<char>::_Alloc_hider", i64, %union.anon }
%"struct.std::__cxx11::basic_string<char>::_Alloc_hider" = type { ptr }
%union.anon = type { i64, [8 x i8] }
%class.ArgInfo = type <{ ptr, i8, i8, i8, i8, [4 x i8] }>

@_Py_NoneStruct = external global %struct._object, align 8
@.str.26 = private unnamed_addr constant [46 x i8] c"Expected '%s' to be a str or path-like object\00", align 1
@.str.27 = private unnamed_addr constant [52 x i8] c"Can't convert object of type '%s' to 'str' for '%s'\00", align 1

; Function Attrs: mustprogress uwtable
define hidden noundef zeroext i1 @_Z11pyopencv_toINSt7__cxx1112basic_stringIcSt11char_traitsIcESaIcEEEEbP7_objectRT_RK7ArgInfo(ptr noundef %0, ptr noundef nonnull align 8 dereferenceable(32) %1, ptr noundef nonnull align 8 dereferenceable(12) %2) #4 personality ptr @__gxx_personality_v0 {
  %4 = alloca i1, align 1
  %5 = alloca ptr, align 8
  %6 = alloca ptr, align 8
  %7 = alloca ptr, align 8
  %8 = alloca %"class.std::__cxx11::basic_string", align 8
  %9 = alloca ptr, align 8
  %10 = alloca i32, align 4
  %11 = alloca i32, align 4
  store ptr %0, ptr %5, align 8
  store ptr %1, ptr %6, align 8
  store ptr %2, ptr %7, align 8
  %12 = load ptr, ptr %5, align 8
  %13 = icmp ne ptr %12, null
  br i1 %13, label %14, label %17

14:                                               ; preds = %3
  %15 = load ptr, ptr %5, align 8
  %16 = icmp eq ptr %15, @_Py_NoneStruct
  br i1 %16, label %17, label %18

17:                                               ; preds = %14, %3
  store i1 true, ptr %4, align 1
  br label %67

18:                                               ; preds = %14
  call void @_ZNSt7__cxx1112basic_stringIcSt11char_traitsIcESaIcEEC1Ev(ptr noundef nonnull align 8 dereferenceable(32) %8) #3
  %19 = load ptr, ptr %7, align 8
  %20 = getelementptr inbounds %class.ArgInfo, ptr %19, i32 0, i32 3
  %21 = load i8, ptr %20, align 2
  %22 = trunc i8 %21 to i1
  br i1 %22, label %23, label %41

23:                                               ; preds = %18
  %24 = load ptr, ptr %5, align 8
  %25 = invoke ptr @PyOS_FSPath(ptr noundef %24)
          to label %26 unwind label %36

26:                                               ; preds = %23
  store ptr %25, ptr %5, align 8
  %27 = invoke ptr @PyErr_Occurred()
          to label %28 unwind label %36

28:                                               ; preds = %26
  %29 = icmp ne ptr %27, null
  br i1 %29, label %30, label %40

30:                                               ; preds = %28
  %31 = load ptr, ptr %7, align 8
  %32 = getelementptr inbounds %class.ArgInfo, ptr %31, i32 0, i32 0
  %33 = load ptr, ptr %32, align 8
  %34 = invoke noundef i32 (ptr, ...) @_Z7failmsgPKcz(ptr noundef @.str.26, ptr noundef %33)
          to label %35 unwind label %36

35:                                               ; preds = %30
  store i1 false, ptr %4, align 1
  store i32 1, ptr %11, align 4
  br label %66

36:                                               ; preds = %53, %49, %45, %41, %30, %26, %23
  %37 = landingpad { ptr, i32 }
          cleanup
  %38 = extractvalue { ptr, i32 } %37, 0
  store ptr %38, ptr %9, align 8
  %39 = extractvalue { ptr, i32 } %37, 1
  store i32 %39, ptr %10, align 4
  call void @_ZNSt7__cxx1112basic_stringIcSt11char_traitsIcESaIcEED1Ev(ptr noundef nonnull align 8 dereferenceable(32) %8) #3
  br label %69

40:                                               ; preds = %28
  br label %41

41:                                               ; preds = %40, %18
  %42 = load ptr, ptr %5, align 8
  %43 = invoke noundef zeroext i1 @_ZL16getUnicodeStringP7_objectRNSt7__cxx1112basic_stringIcSt11char_traitsIcESaIcEEE(ptr noundef %42, ptr noundef nonnull align 8 dereferenceable(32) %8)
          to label %44 unwind label %36

44:                                               ; preds = %41
  br i1 %43, label %45, label %49

45:                                               ; preds = %44
  %46 = load ptr, ptr %6, align 8
  %47 = invoke noundef nonnull align 8 dereferenceable(32) ptr @_ZNSt7__cxx1112basic_stringIcSt11char_traitsIcESaIcEEaSERKS4_(ptr noundef nonnull align 8 dereferenceable(32) %46, ptr noundef nonnull align 8 dereferenceable(32) %8)
          to label %48 unwind label %36

48:                                               ; preds = %45
  store i1 true, ptr %4, align 1
  store i32 1, ptr %11, align 4
  br label %66

49:                                               ; preds = %44
  %50 = invoke ptr @PyErr_Occurred()
          to label %51 unwind label %36

51:                                               ; preds = %49
  %52 = icmp ne ptr %50, null
  br i1 %52, label %64, label %53

53:                                               ; preds = %51
  %54 = load ptr, ptr %5, align 8
  %55 = getelementptr inbounds %struct._object, ptr %54, i32 0, i32 1
  %56 = load ptr, ptr %55, align 8
  %57 = getelementptr inbounds %struct._typeobject, ptr %56, i32 0, i32 1
  %58 = load ptr, ptr %57, align 8
  %59 = load ptr, ptr %7, align 8
  %60 = getelementptr inbounds %class.ArgInfo, ptr %59, i32 0, i32 0
  %61 = load ptr, ptr %60, align 8
  %62 = invoke noundef i32 (ptr, ...) @_Z7failmsgPKcz(ptr noundef @.str.27, ptr noundef %58, ptr noundef %61)
          to label %63 unwind label %36

63:                                               ; preds = %53
  br label %64

64:                                               ; preds = %63, %51
  br label %65

65:                                               ; preds = %64
  store i1 false, ptr %4, align 1
  store i32 1, ptr %11, align 4
  br label %66

66:                                               ; preds = %65, %48, %35
  call void @_ZNSt7__cxx1112basic_stringIcSt11char_traitsIcESaIcEED1Ev(ptr noundef nonnull align 8 dereferenceable(32) %8) #3
  br label %67

67:                                               ; preds = %66, %17
  %68 = load i1, ptr %4, align 1
  ret i1 %68

69:                                               ; preds = %36
  %70 = load ptr, ptr %9, align 8
  %71 = load i32, ptr %10, align 4
  %72 = insertvalue { ptr, i32 } poison, ptr %70, 0
  %73 = insertvalue { ptr, i32 } %72, i32 %71, 1
  resume { ptr, i32 } %73
}