; Function Attrs: mustprogress uwtable
define hidden noundef zeroext i1 @_Z11pyopencv_toINSt7__cxx1112basic_stringIcSt11char_traitsIcESaIcEEEEbP7_objectRT_RK7ArgInfo(ptr noundef %0, ptr noundef nonnull align 8 dereferenceable(32) %1, ptr nocapture noundef nonnull readonly align 8 dereferenceable(12) %2) local_unnamed_addr #3 personality ptr @__gxx_personality_v0 {
  %4 = alloca %"class.std::__cxx11::basic_string", align 8
  %5 = icmp eq ptr %0, null
  %6 = icmp eq ptr %0, @_Py_NoneStruct
  %or.cond = or i1 %5, %6
  br i1 %or.cond, label %37, label %7

7:                                                ; preds = %3
  call void @_ZNSt7__cxx1112basic_stringIcSt11char_traitsIcESaIcEEC1Ev(ptr noundef nonnull align 8 dereferenceable(32) %4) #12
  %8 = getelementptr inbounds i8, ptr %2, i64 10
  %9 = load i8, ptr %8, align 2
  %10 = trunc i8 %9 to i1
  br i1 %10, label %11, label %21

11:                                               ; preds = %7
  %12 = invoke ptr @PyOS_FSPath(ptr noundef nonnull %0)
          to label %13 unwind label %19

13:                                               ; preds = %11
  %14 = invoke ptr @PyErr_Occurred()
          to label %15 unwind label %19

15:                                               ; preds = %13
  %.not = icmp eq ptr %14, null
  br i1 %.not, label %21, label %16

16:                                               ; preds = %15
  %17 = load ptr, ptr %2, align 8
  %18 = invoke noundef i32 (ptr, ...) @_Z7failmsgPKcz(ptr noundef nonnull @.str.26, ptr noundef %17)
          to label %36 unwind label %19

19:                                               ; preds = %29, %26, %24, %21, %16, %13, %11
  %20 = landingpad { ptr, i32 }
          cleanup
  call void @_ZNSt7__cxx1112basic_stringIcSt11char_traitsIcESaIcEED1Ev(ptr noundef nonnull align 8 dereferenceable(32) %4) #12
  resume { ptr, i32 } %20

21:                                               ; preds = %15, %7
  %.012 = phi ptr [ %12, %15 ], [ %0, %7 ]
  %22 = invoke fastcc noundef zeroext i1 @_ZL16getUnicodeStringP7_objectRNSt7__cxx1112basic_stringIcSt11char_traitsIcESaIcEEE(ptr noundef %.012, ptr noundef nonnull align 8 dereferenceable(32) %4)
          to label %23 unwind label %19

23:                                               ; preds = %21
  br i1 %22, label %24, label %26

24:                                               ; preds = %23
  %25 = invoke noundef nonnull align 8 dereferenceable(32) ptr @_ZNSt7__cxx1112basic_stringIcSt11char_traitsIcESaIcEEaSERKS4_(ptr noundef nonnull align 8 dereferenceable(32) %1, ptr noundef nonnull align 8 dereferenceable(32) %4)
          to label %36 unwind label %19

26:                                               ; preds = %23
  %27 = invoke ptr @PyErr_Occurred()
          to label %28 unwind label %19

28:                                               ; preds = %26
  %.not14 = icmp eq ptr %27, null
  br i1 %.not14, label %29, label %36

29:                                               ; preds = %28
  %30 = getelementptr inbounds i8, ptr %.012, i64 8
  %31 = load ptr, ptr %30, align 8
  %32 = getelementptr inbounds i8, ptr %31, i64 24
  %33 = load ptr, ptr %32, align 8
  %34 = load ptr, ptr %2, align 8
  %35 = invoke noundef i32 (ptr, ...) @_Z7failmsgPKcz(ptr noundef nonnull @.str.27, ptr noundef %33, ptr noundef %34)
          to label %36 unwind label %19

36:                                               ; preds = %29, %28, %24, %16
  %.0 = phi i1 [ false, %16 ], [ true, %24 ], [ false, %28 ], [ false, %29 ]
  call void @_ZNSt7__cxx1112basic_stringIcSt11char_traitsIcESaIcEED1Ev(ptr noundef nonnull align 8 dereferenceable(32) %4) #12
  br label %37

37:                                               ; preds = %3, %36
  %.1 = phi i1 [ %.0, %36 ], [ true, %3 ]
  ret i1 %.1
}